; Function Attrs: mustprogress uwtable
define hidden noundef range(i32 -100, 1) i32 @_ZNK4ncnn21Requantize_x86_avx5127forwardERKNS_3MatERS1_RKNS_6OptionE(ptr noundef nonnull align 8 dereferenceable(512) %0, ptr noundef nonnull align 8 dereferenceable(72) %1, ptr noundef nonnull align 8 dereferenceable(72) %2, ptr noundef nonnull readonly align 8 captures(none) dereferenceable(64) %3) unnamed_addr #2 align 2 {
  %5 = alloca i32, align 4
  %6 = alloca i32, align 4
  %7 = alloca i32, align 4
  %8 = alloca i32, align 4
  %9 = alloca i32, align 4
  %10 = alloca i32, align 4
  %11 = tail call i32 @__kmpc_global_thread_num(ptr nonnull @2)
  %12 = getelementptr inbounds nuw i8, ptr %1, i64 40
  %13 = load i32, ptr %12, align 8, !tbaa !18
  call void @llvm.lifetime.start.p0(i64 4, ptr nonnull %5) #5
  %14 = getelementptr inbounds nuw i8, ptr %1, i64 44
  %15 = load i32, ptr %14, align 4, !tbaa !19
  store i32 %15, ptr %5, align 4, !tbaa !20
  call void @llvm.lifetime.start.p0(i64 4, ptr nonnull %6) #5
  %16 = getelementptr inbounds nuw i8, ptr %1, i64 48
  %17 = load i32, ptr %16, align 8, !tbaa !21
  store i32 %17, ptr %6, align 4, !tbaa !20
  call void @llvm.lifetime.start.p0(i64 4, ptr nonnull %7) #5
  %18 = getelementptr inbounds nuw i8, ptr %1, i64 56
  %19 = load i32, ptr %18, align 8, !tbaa !22
  store i32 %19, ptr %7, align 4, !tbaa !20
  call void @llvm.lifetime.start.p0(i64 4, ptr nonnull %8) #5
  %20 = getelementptr inbounds nuw i8, ptr %1, i64 24
  %21 = load i32, ptr %20, align 8, !tbaa !23
  store i32 %21, ptr %8, align 4, !tbaa !20
  %22 = zext i32 %21 to i64
  switch i32 %13, label %_ZNK4ncnn3Mat5emptyEv.exit.thread [
    i32 1, label %23
    i32 2, label %42
    i32 3, label %57
  ]

23:                                               ; preds = %4
  %24 = getelementptr inbounds nuw i8, ptr %3, i64 8
  %25 = load ptr, ptr %24, align 8, !tbaa !24
  tail call void @_ZN4ncnn3Mat6createEimiPNS_9AllocatorE(ptr noundef nonnull align 8 dereferenceable(72) %2, i32 noundef %15, i64 noundef %22, i32 noundef %21, ptr noundef %25)
  %26 = load ptr, ptr %2, align 8, !tbaa !16
  %27 = icmp eq ptr %26, null
  br i1 %27, label %_ZNK4ncnn3Mat5emptyEv.exit.thread, label %_ZNK4ncnn3Mat5emptyEv.exit

_ZNK4ncnn3Mat5emptyEv.exit:                       ; preds = %23
  %28 = getelementptr inbounds nuw i8, ptr %2, i64 64
  %29 = load i64, ptr %28, align 8, !tbaa !17
  %30 = getelementptr inbounds nuw i8, ptr %2, i64 56
  %31 = load i32, ptr %30, align 8, !tbaa !22
  %32 = sext i32 %31 to i64
  %33 = mul i64 %29, %32
  %34 = icmp eq i64 %33, 0
  br i1 %34, label %_ZNK4ncnn3Mat5emptyEv.exit.thread, label %35

35:                                               ; preds = %_ZNK4ncnn3Mat5emptyEv.exit
  call void @llvm.lifetime.start.p0(i64 4, ptr nonnull %9) #5
  %36 = getelementptr inbounds nuw i8, ptr %3, i64 4
  %37 = load i32, ptr %36, align 4, !tbaa !27
  %38 = sdiv i32 %15, %37
  %.sroa.speculated = tail call i32 @llvm.smax.i32(i32 %38, i32 1)
  store i32 %.sroa.speculated, ptr %9, align 4, !tbaa !20
  call void @llvm.lifetime.start.p0(i64 4, ptr nonnull %10) #5
  %39 = add i32 %15, -1
  %40 = add i32 %39, %.sroa.speculated
  %41 = sdiv i32 %40, %.sroa.speculated
  store i32 %41, ptr %10, align 4, !tbaa !20
  tail call void @__kmpc_push_num_threads(ptr nonnull @2, i32 %11, i32 %37)
  call void (ptr, i32, ptr, ...) @__kmpc_fork_call(ptr nonnull @2, i32 7, ptr nonnull @_ZNK4ncnn21Requantize_x86_avx5127forwardERKNS_3MatERS1_RKNS_6OptionE.omp_outlined, ptr nonnull %10, ptr nonnull %9, ptr nonnull %1, ptr nonnull %8, ptr nonnull %2, ptr nonnull %5, ptr nonnull %0)
  call void @llvm.lifetime.end.p0(i64 4, ptr nonnull %10) #5
  call void @llvm.lifetime.end.p0(i64 4, ptr nonnull %9) #5
  br label %_ZNK4ncnn3Mat5emptyEv.exit.thread

42:                                               ; preds = %4
  %43 = getelementptr inbounds nuw i8, ptr %3, i64 8
  %44 = load ptr, ptr %43, align 8, !tbaa !24
  tail call void @_ZN4ncnn3Mat6createEiimiPNS_9AllocatorE(ptr noundef nonnull align 8 dereferenceable(72) %2, i32 noundef %15, i32 noundef %17, i64 noundef %22, i32 noundef %21, ptr noundef %44)
  %45 = load ptr, ptr %2, align 8, !tbaa !16
  %46 = icmp eq ptr %45, null
  br i1 %46, label %_ZNK4ncnn3Mat5emptyEv.exit.thread, label %_ZNK4ncnn3Mat5emptyEv.exit31

_ZNK4ncnn3Mat5emptyEv.exit31:                     ; preds = %42
  %47 = getelementptr inbounds nuw i8, ptr %2, i64 64
  %48 = load i64, ptr %47, align 8, !tbaa !17
  %49 = getelementptr inbounds nuw i8, ptr %2, i64 56
  %50 = load i32, ptr %49, align 8, !tbaa !22
  %51 = sext i32 %50 to i64
  %52 = mul i64 %48, %51
  %53 = icmp eq i64 %52, 0
  br i1 %53, label %_ZNK4ncnn3Mat5emptyEv.exit.thread, label %54

54:                                               ; preds = %_ZNK4ncnn3Mat5emptyEv.exit31
  %55 = getelementptr inbounds nuw i8, ptr %3, i64 4
  %56 = load i32, ptr %55, align 4, !tbaa !27
  tail call void @__kmpc_push_num_threads(ptr nonnull @2, i32 %11, i32 %56)
  call void (ptr, i32, ptr, ...) @__kmpc_fork_call(ptr nonnull @2, i32 6, ptr nonnull @_ZNK4ncnn21Requantize_x86_avx5127forwardERKNS_3MatERS1_RKNS_6OptionE.omp_outlined.1, ptr nonnull %6, ptr nonnull %1, ptr nonnull %2, ptr nonnull %0, ptr nonnull %8, ptr nonnull %5)
  br label %_ZNK4ncnn3Mat5emptyEv.exit.thread

57:                                               ; preds = %4
  %58 = getelementptr inbounds nuw i8, ptr %3, i64 8
  %59 = load ptr, ptr %58, align 8, !tbaa !24
  tail call void @_ZN4ncnn3Mat6createEiiimiPNS_9AllocatorE(ptr noundef nonnull align 8 dereferenceable(72) %2, i32 noundef %15, i32 noundef %17, i32 noundef %19, i64 noundef %22, i32 noundef %21, ptr noundef %59)
  %60 = load ptr, ptr %2, align 8, !tbaa !16
  %61 = icmp eq ptr %60, null
  br i1 %61, label %_ZNK4ncnn3Mat5emptyEv.exit.thread, label %_ZNK4ncnn3Mat5emptyEv.exit32

_ZNK4ncnn3Mat5emptyEv.exit32:                     ; preds = %57
  %62 = getelementptr inbounds nuw i8, ptr %2, i64 64
  %63 = load i64, ptr %62, align 8, !tbaa !17
  %64 = getelementptr inbounds nuw i8, ptr %2, i64 56
  %65 = load i32, ptr %64, align 8, !tbaa !22
  %66 = sext i32 %65 to i64
  %67 = mul i64 %63, %66
  %68 = icmp eq i64 %67, 0
  br i1 %68, label %_ZNK4ncnn3Mat5emptyEv.exit.thread, label %69

69:                                               ; preds = %_ZNK4ncnn3Mat5emptyEv.exit32
  %70 = getelementptr inbounds nuw i8, ptr %3, i64 4
  %71 = load i32, ptr %70, align 4, !tbaa !27
  tail call void @__kmpc_push_num_threads(ptr nonnull @2, i32 %11, i32 %71)
  call void (ptr, i32, ptr, ...) @__kmpc_fork_call(ptr nonnull @2, i32 7, ptr nonnull @_ZNK4ncnn21Requantize_x86_avx5127forwardERKNS_3MatERS1_RKNS_6OptionE.omp_outlined.2, ptr nonnull %7, ptr nonnull %1, ptr nonnull %2, ptr nonnull %0, ptr nonnull %8, ptr nonnull %5, ptr nonnull %6)
  br label %_ZNK4ncnn3Mat5emptyEv.exit.thread

_ZNK4ncnn3Mat5emptyEv.exit.thread:                ; preds = %57, %42, %23, %54, %35, %69, %4, %_ZNK4ncnn3Mat5emptyEv.exit32, %_ZNK4ncnn3Mat5emptyEv.exit31, %_ZNK4ncnn3Mat5emptyEv.exit
  %.0 = phi i32 [ -100, %_ZNK4ncnn3Mat5emptyEv.exit ], [ -100, %_ZNK4ncnn3Mat5emptyEv.exit31 ], [ -100, %_ZNK4ncnn3Mat5emptyEv.exit32 ], [ 0, %4 ], [ 0, %35 ], [ 0, %69 ], [ 0, %54 ], [ -100, %23 ], [ -100, %42 ], [ -100, %57 ]
  call void @llvm.lifetime.end.p0(i64 4, ptr nonnull %8) #5
  call void @llvm.lifetime.end.p0(i64 4, ptr nonnull %7) #5
  call void @llvm.lifetime.end.p0(i64 4, ptr nonnull %6) #5
  call void @llvm.lifetime.end.p0(i64 4, ptr nonnull %5) #5
  ret i32 %.0
}